; Function Attrs: nounwind uwtable
define hidden range(i32 0, 2) i32 @_ctypes_simple_instance(ptr noundef readonly captures(none) %0, ptr noundef readonly captures(none) %1) local_unnamed_addr #0 {
  %3 = getelementptr inbounds nuw i8, ptr %0, i64 80
  %4 = load ptr, ptr %3, align 8, !tbaa !47
  %5 = getelementptr i8, ptr %1, i64 8
  %.val = load ptr, ptr %5, align 8, !tbaa !10
  %.not.i = icmp eq ptr %.val, %4
  br i1 %.not.i, label %PyObject_TypeCheck.exit.thread, label %PyObject_TypeCheck.exit

PyObject_TypeCheck.exit:                          ; preds = %2
  %6 = tail call i32 @PyType_IsSubtype(ptr noundef %.val, ptr noundef %4) #17
  %.not6 = icmp eq i32 %6, 0
  br i1 %.not6, label %13, label %PyObject_TypeCheck.exit.thread

PyObject_TypeCheck.exit.thread:                   ; preds = %2, %PyObject_TypeCheck.exit
  %7 = getelementptr inbounds nuw i8, ptr %1, i64 256
  %8 = load ptr, ptr %7, align 8, !tbaa !48
  %9 = getelementptr inbounds nuw i8, ptr %0, i64 128
  %10 = load ptr, ptr %9, align 8, !tbaa !49
  %11 = icmp ne ptr %8, %10
  %12 = zext i1 %11 to i32
  br label %13

13:                                               ; preds = %PyObject_TypeCheck.exit, %PyObject_TypeCheck.exit.thread
  %.0 = phi i32 [ %12, %PyObject_TypeCheck.exit.thread ], [ 0, %PyObject_TypeCheck.exit ]
  ret i32 %.0
}